Certificate:
    Data:
        Version: 1 (0x0)
        Serial Number: 2 (0x2)
    Signature Algorithm: sha512WithRSAEncryption
        Issuer: O=Root CA, CN=*
        Validity
            Not Before: Mar 13 23:07:17 2017 GMT
            Not After : Mar 12 23:07:17 2022 GMT
        Subject: O=Client User, CN=user
        Subject Public Key Info:
            Public Key Algorithm: rsaEncryption
                Public-Key: (4096 bit)
                Modulus:
                    00:de:1b:6f:1d:ae:99:c0:b0:cc:16:fe:76:12:e7:
                    08:b9:da:e6:ab:21:25:56:84:e3:99:39:0d:76:d6:
                    70:57:c5:23:19:46:36:87:23:00:77:38:20:e4:64:
                    44:68:92:23:88:81:4f:57:82:07:db:48:b5:42:7c:
                    c2:e5:ae:4c:b5:3a:b3:eb:a2:5f:55:cc:1a:39:d5:
                    ce:f2:74:33:63:31:5a:8e:ce:a9:57:c8:9c:4a:e4:
                    85:b2:6a:ba:4f:e6:28:e2:36:b0:61:b7:30:67:06:
                    f9:be:33:db:77:ff:32:38:95:fd:ab:bb:98:72:1d:
                    f2:2e:2b:17:ae:86:bb:f3:8f:e8:c5:5f:05:57:b4:
                    01:96:7e:87:41:69:d2:3b:59:03:ce:75:9d:ad:07:
                    fb:e3:af:38:d9:99:95:32:65:3f:e1:39:77:e0:06:
                    5b:35:f0:2c:eb:82:6a:71:af:10:78:ba:6d:87:95:
                    2e:ee:c4:b7:31:79:34:0c:e7:15:bc:b4:7c:88:4b:
                    11:1a:a9:8d:59:83:45:5e:7a:0d:cc:9f:7a:7f:0f:
                    86:64:e5:c1:b0:4c:42:e5:e2:0d:75:5c:e6:a6:0d:
                    b0:5d:af:02:d8:f1:95:b3:1d:a3:f6:4d:fc:e3:5f:
                    ca:65:ec:24:cc:bd:01:7f:83:36:af:27:05:bc:d3:
                    22:19:b1:a0:57:57:ee:ca:a1:8b:b6:6b:ce:20:41:
                    ad:33:11:b0:ad:44:dd:0d:e1:b0:5e:2d:21:21:14:
                    98:66:d6:d6:e8:e1:66:3e:4f:ff:58:41:9f:a3:7b:
                    2f:0e:8b:cb:90:45:54:9c:50:ca:bc:67:78:28:cd:
                    d9:8e:e7:5f:6f:70:9c:8e:85:a6:9c:5d:82:0e:49:
                    04:64:05:85:c2:19:b8:85:9b:ba:40:6d:89:40:36:
                    54:78:0e:db:01:29:0d:b1:ad:4c:02:70:3d:ee:66:
                    a6:f7:43:4c:5e:06:84:52:1a:af:4c:57:b9:3f:c1:
                    af:85:fe:72:45:79:3f:8c:1f:51:75:8a:95:6a:97:
                    8e:07:2e:aa:f9:93:47:f2:d9:6a:0b:75:1d:64:e4:
                    9c:43:f2:21:4f:38:f5:ee:9e:f7:46:c9:02:48:bf:
                    4a:58:20:1d:4f:9a:7e:4d:61:ad:4e:85:71:e0:34:
                    c1:d4:12:98:11:fc:c9:7b:0d:db:e7:9f:13:74:ab:
                    62:6f:57:78:dd:a9:e3:d7:5c:3a:0f:53:e7:1f:98:
                    b4:eb:25:45:13:d5:8f:09:a8:25:23:6a:50:3b:93:
                    3e:c8:85:df:df:2d:e0:74:98:88:98:c8:dc:71:47:
                    80:10:6d:45:11:a5:da:6b:b2:0b:4c:8f:30:58:be:
                    68:c0:37
                Exponent: 65537 (0x10001)
    Signature Algorithm: sha512WithRSAEncryption
         43:9c:d9:ba:d5:e3:62:ed:59:23:08:58:4a:e3:d1:87:6a:86:
         d6:63:68:38:50:0f:05:92:9a:ea:8a:f5:8b:05:b9:df:7c:97:
         a0:93:75:32:4f:7d:b6:a1:35:36:74:d6:f9:0a:67:df:fc:d7:
         a0:5d:e3:7e:29:ff:f5:ca:08:16:bb:06:8b:34:0b:a8:da:4e:
         3c:55:15:97:c3:cd:c2:5d:9b:7f:af:40:dc:9e:ec:1a:05:e4:
         07:46:45:da:e1:b4:4f:96:3f:23:97:ef:c2:35:d4:8d:35:37:
         b0:d8:90:4a:81:b9:7f:fc:af:b4:8f:69:c3:3e:5d:0c:50:70:
         36:e6:22:78:73:09:17:b6:8d:39:0e:0d:60:2e:52:f8:3d:0d:
         4a:ed:ef:6c:fb:f1:ce:c7:89:f4:f1:78:f1:0d:ac:55:dd:fd:
         48:37:98:ca:07:d5:ee:20:de:da:4b:ab:12:84:c8:63:4c:35:
         6b:22:4a:14:d6:c1:90:8a:46:ad:27:75:6e:ea:01:e1:cb:ff:
         a0:8a:83:65:89:18:ee:f9:c6:db:9a:61:da:d6:cf:47:a0:16:
         67:7a:7f:ad:56:4d:fa:53:51:ee:a3:96:ad:e4:3f:94:b3:df:
         d8:86:7b:59:a9:1a:70:a5:7a:fb:34:81:07:b6:c5:fb:99:d7:
         eb:6a:ce:05:8f:2c:47:30:61:90:76:97:87:77:e0:df:be:79:
         fa:02:e0:9b:10:ab:76:bf:01:64:0b:ac:09:73:25:ce:a4:20:
         9c:b9:1d:a5:42:2f:1c:24:2c:a0:c2:68:ef:86:aa:a4:12:49:
         cf:e9:75:8c:43:b2:64:27:1f:d5:1e:98:3b:0a:c0:db:dd:b2:
         ce:7b:c7:86:a6:de:e2:77:31:85:0a:7b:94:ef:3e:47:36:a3:
         ac:59:be:c0:15:74:5d:50:6b:54:23:36:2b:e2:37:b4:e2:d7:
         25:54:38:3f:85:fa:56:7e:a9:b4:b8:16:3f:c9:16:c1:bb:28:
         50:1a:d8:df:e6:59:85:23:c1:d0:94:dd:f3:9d:3e:fa:56:ef:
         e6:3d:7a:01:21:d5:56:d4:45:e2:83:9c:1b:d4:54:1e:5f:00:
         25:e9:84:4c:a6:08:63:13:55:e1:47:b4:2c:b1:07:63:12:e5:
         83:6e:39:be:cb:ab:38:37:53:9c:2d:db:e5:37:a3:07:db:ae:
         00:77:82:61:29:b0:e8:7e:fd:e6:5f:42:d1:20:f5:49:92:4d:
         2f:83:78:c2:80:fe:9b:28:33:e1:c9:01:17:e2:ea:a3:d1:f7:
         96:c2:10:ea:ed:83:9f:8f:cf:95:47:5d:64:08:8d:a3:4a:d8:
         1a:6b:3b:78:4a:11:d3:3c
-----BEGIN CERTIFICATE-----
MIIEtzCCAp8CAQIwDQYJKoZIhvcNAQENBQAwHjEQMA4GA1UECgwHUm9vdCBDQTEK
MAgGA1UEAwwBKjAeFw0xNzAzMTMyMzA3MTdaFw0yMjAzMTIyMzA3MTdaMCUxFDAS
BgNVBAoMC0NsaWVudCBVc2VyMQ0wCwYDVQQDDAR1c2VyMIICIjANBgkqhkiG9w0B
AQEFAAOCAg8AMIICCgKCAgEA3htvHa6ZwLDMFv52EucIudrmqyElVoTjmTkNdtZw
V8UjGUY2hyMAdzgg5GREaJIjiIFPV4IH20i1QnzC5a5MtTqz66JfVcwaOdXO8nQz
YzFajs6pV8icSuSFsmq6T+Yo4jawYbcwZwb5vjPbd/8yOJX9q7uYch3yLisXroa7
84/oxV8FV7QBln6HQWnSO1kDznWdrQf746842ZmVMmU/4Tl34AZbNfAs64Jqca8Q
eLpth5Uu7sS3MXk0DOcVvLR8iEsRGqmNWYNFXnoNzJ96fw+GZOXBsExC5eINdVzm
pg2wXa8C2PGVsx2j9k3841/KZewkzL0Bf4M2rycFvNMiGbGgV1fuyqGLtmvOIEGt
MxGwrUTdDeGwXi0hIRSYZtbW6OFmPk//WEGfo3svDovLkEVUnFDKvGd4KM3Zjudf
b3CcjoWmnF2CDkkEZAWFwhm4hZu6QG2JQDZUeA7bASkNsa1MAnA97mam90NMXgaE
UhqvTFe5P8Gvhf5yRXk/jB9RdYqVapeOBy6q+ZNH8tlqC3UdZOScQ/IhTzj17p73
RskCSL9KWCAdT5p+TWGtToVx4DTB1BKYEfzJew3b558TdKtib1d43anj11w6D1Pn
H5i06yVFE9WPCaglI2pQO5M+yIXf3y3gdJiImMjccUeAEG1FEaXaa7ILTI8wWL5o
wDcCAwEAATANBgkqhkiG9w0BAQ0FAAOCAgEAQ5zZutXjYu1ZIwhYSuPRh2qG1mNo
OFAPBZKa6or1iwW533yXoJN1Mk99tqE1NnTW+Qpn3/zXoF3jfin/9coIFrsGizQL
qNpOPFUVl8PNwl2bf69A3J7sGgXkB0ZF2uG0T5Y/I5fvwjXUjTU3sNiQSoG5f/yv
tI9pwz5dDFBwNuYieHMJF7aNOQ4NYC5S+D0NSu3vbPvxzseJ9PF48Q2sVd39SDeY
ygfV7iDe2kurEoTIY0w1ayJKFNbBkIpGrSd1buoB4cv/oIqDZYkY7vnG25ph2tbP
R6AWZ3p/rVZN+lNR7qOWreQ/lLPf2IZ7WakacKV6+zSBB7bF+5nX62rOBY8sRzBh
kHaXh3fg3755+gLgmxCrdr8BZAusCXMlzqQgnLkdpUIvHCQsoMJo74aqpBJJz+l1
jEOyZCcf1R6YOwrA292yznvHhqbe4ncxhQp7lO8+RzajrFm+wBV0XVBrVCM2K+I3
tOLXJVQ4P4X6Vn6ptLgWP8kWwbsoUBrY3+ZZhSPB0JTd850++lbv5j16ASHVVtRF
4oOcG9RUHl8AJemETKYIYxNV4Ue0LLEHYxLlg245vsurODdTnC3b5TejB9uuAHeC
YSmw6H795l9C0SD1SZJNL4N4woD+mygz4ckBF+Lqo9H3lsIQ6u2Dn4/PlUddZAiN
o0rYGms7eEoR0zw=
-----END CERTIFICATE-----
