Certificate:
    Data:
        Version: 1 (0x0)
        Serial Number: 1 (0x1)
    Signature Algorithm: sha512WithRSAEncryption
        Issuer: O=Root CA, CN=*
        Validity
            Not Before: Mar 13 23:07:16 2017 GMT
            Not After : Mar 12 23:07:16 2022 GMT
        Subject: O=Flask Rest Target, CN=flask_target
        Subject Public Key Info:
            Public Key Algorithm: rsaEncryption
                Public-Key: (4096 bit)
                Modulus:
                    00:cb:5d:0e:cc:ba:c6:f9:b4:c1:65:e1:e9:df:a2:
                    35:37:e6:45:a9:de:5e:4e:c4:ec:81:43:0a:46:59:
                    50:fc:dd:c9:19:6a:b2:bf:da:8a:e2:f9:dc:d3:85:
                    ed:68:11:16:d7:cc:a8:ea:04:74:9d:35:1d:3a:dc:
                    b2:09:4b:76:3a:f8:c1:55:94:5b:6e:fb:45:dd:71:
                    ed:9e:1f:00:ca:55:bc:15:aa:44:db:46:fc:53:17:
                    ca:1a:6b:c7:14:ba:e3:b2:9f:7a:81:29:8a:95:14:
                    f8:b6:d8:56:08:1c:51:4a:51:38:6f:5f:3b:5d:7a:
                    f4:e9:46:9c:63:d4:a0:fa:7f:27:0b:20:22:8d:03:
                    9e:30:d0:f8:4b:58:70:f9:b7:61:ce:ea:43:bc:0a:
                    69:29:61:0f:73:f0:ce:3e:55:4b:52:03:3c:8b:02:
                    05:d6:08:7e:76:a3:6b:a5:ad:54:d2:13:b6:71:10:
                    b4:6d:c3:71:6a:fc:2a:f3:e9:40:45:85:db:f1:e0:
                    69:8d:67:17:fb:92:75:15:7b:fc:5a:bf:15:3e:1a:
                    80:3f:1c:de:65:5a:5b:44:ec:cc:cb:bb:0e:17:ec:
                    2f:f5:8a:20:3b:1c:6f:be:b8:6c:27:6e:cf:df:7e:
                    2f:75:7a:2b:b7:17:67:28:fa:66:92:c8:42:16:37:
                    d0:4a:30:32:63:82:31:f2:35:ed:de:86:47:88:b6:
                    a1:8f:ae:00:89:51:02:ad:c4:ab:37:83:c7:69:9f:
                    d7:a9:d5:ef:f3:b0:f0:56:3a:3a:21:f8:10:2a:7b:
                    de:4f:87:d9:32:a3:ff:9e:97:c9:a4:90:56:9c:1c:
                    19:f4:a9:7a:3c:e4:5d:29:c9:71:ec:88:f7:8d:5f:
                    a5:65:90:af:7a:f1:89:42:01:71:6f:44:0e:29:87:
                    86:2b:36:f8:fb:d2:10:1b:c9:49:22:86:ed:11:ba:
                    49:13:4a:cc:0a:75:ee:33:b9:6e:68:0d:fb:bb:4a:
                    78:87:ed:c3:94:36:ed:05:ff:a4:e2:05:9e:1c:5b:
                    68:44:86:dd:94:70:65:25:e9:13:f7:a0:25:af:ee:
                    3c:e7:d7:1a:1b:04:b3:2c:06:a5:e1:13:83:fa:64:
                    db:96:6e:41:06:00:0f:36:67:ec:9c:3d:58:ae:df:
                    8f:18:9e:b2:ee:09:d7:0a:a7:ff:91:8d:1c:ac:4b:
                    a8:47:7b:01:2f:22:50:f7:14:34:be:23:5d:78:41:
                    0d:b2:09:86:d0:b8:f1:ad:79:dc:e0:ae:fb:2d:df:
                    04:af:1e:ac:1a:d9:c1:ec:7e:a0:bb:3e:96:5c:77:
                    ce:66:30:02:4e:c6:f2:8b:2b:97:65:62:08:be:19:
                    f1:50:05
                Exponent: 65537 (0x10001)
    Signature Algorithm: sha512WithRSAEncryption
         55:92:82:8a:ff:5c:91:df:8a:2e:cd:bb:6f:03:a4:29:56:9d:
         a4:c3:3f:03:a4:44:aa:30:a3:56:c0:c7:74:a5:61:ab:8f:cb:
         d7:ae:f7:8d:5f:45:a5:99:39:29:00:b7:22:2f:ca:0d:d2:11:
         9a:17:66:02:83:f4:c4:fd:db:30:65:de:ad:80:12:9b:b4:a2:
         8e:7e:c1:be:be:e2:3c:b6:31:66:08:ce:36:8e:5b:3a:66:9d:
         40:43:e1:c7:2a:06:d9:95:34:5c:87:9e:74:a0:ba:2f:02:d6:
         e6:46:83:78:57:78:17:a2:02:a0:0d:ba:63:a5:8d:75:21:67:
         cc:4a:72:1a:19:38:d4:a8:7c:ae:81:f5:db:ce:0e:5c:c7:19:
         99:f7:45:43:94:7a:fd:89:52:f0:3b:6d:27:06:41:63:a5:16:
         a7:4b:37:4c:f2:66:80:6e:e5:46:d7:a8:a2:85:3c:14:ca:fc:
         4d:a8:5c:42:d4:71:bf:26:6f:5c:76:21:62:bb:22:33:00:82:
         db:52:8b:73:e0:71:82:eb:75:be:fb:aa:58:31:f5:28:45:b5:
         3c:98:0a:2d:1b:d9:32:55:de:3b:b3:f8:e3:9e:3b:bc:3a:5c:
         91:95:c7:55:77:b3:21:39:5b:2d:72:c5:63:d7:a9:3a:20:23:
         7f:f7:d2:36:8a:f6:68:8d:6b:3e:e0:30:58:72:61:74:b8:42:
         d6:bf:79:74:29:ff:fc:25:0b:05:28:16:00:b7:e3:31:d8:58:
         8b:b5:3b:bc:32:f4:df:01:88:6a:73:56:b1:98:73:e5:4a:69:
         20:3a:2f:c4:ef:25:30:c0:6c:1d:eb:b5:28:02:72:38:9a:6a:
         5c:6b:c6:e6:ea:02:18:ef:92:2e:07:75:db:3b:52:af:aa:0b:
         2c:a5:1e:4e:16:d1:8a:a5:6e:45:fc:a4:99:ad:7e:b2:55:4e:
         2b:89:9b:23:da:71:af:fa:49:03:60:11:35:85:05:d7:85:f4:
         ea:fe:61:af:33:46:a3:e7:ea:6e:62:51:c9:50:7a:77:2b:20:
         b2:28:23:22:3b:5a:28:2d:78:c7:2e:9a:2c:90:01:52:ae:1b:
         af:28:65:4f:9b:88:90:67:5b:4d:9a:07:1d:c1:c8:c8:6e:d1:
         79:1b:30:c7:06:3c:87:ec:73:ed:ba:2f:78:84:cb:a7:d5:75:
         fa:2b:18:40:b7:5f:5f:44:7e:cc:3d:54:f7:95:1e:e9:ec:34:
         e7:13:15:38:b1:89:27:25:02:06:06:5f:d4:6c:dc:20:32:52:
         34:d4:43:4a:60:e8:98:c0:61:c5:28:ea:83:05:39:1e:3f:ea:
         92:f5:7c:13:a1:25:36:55
-----BEGIN CERTIFICATE-----
MIIExTCCAq0CAQEwDQYJKoZIhvcNAQENBQAwHjEQMA4GA1UECgwHUm9vdCBDQTEK
MAgGA1UEAwwBKjAeFw0xNzAzMTMyMzA3MTZaFw0yMjAzMTIyMzA3MTZaMDMxGjAY
BgNVBAoMEUZsYXNrIFJlc3QgVGFyZ2V0MRUwEwYDVQQDDAxmbGFza190YXJnZXQw
ggIiMA0GCSqGSIb3DQEBAQUAA4ICDwAwggIKAoICAQDLXQ7Musb5tMFl4enfojU3
5kWp3l5OxOyBQwpGWVD83ckZarK/2ori+dzThe1oERbXzKjqBHSdNR063LIJS3Y6
+MFVlFtu+0Xdce2eHwDKVbwVqkTbRvxTF8oaa8cUuuOyn3qBKYqVFPi22FYIHFFK
UThvXztdevTpRpxj1KD6fycLICKNA54w0PhLWHD5t2HO6kO8CmkpYQ9z8M4+VUtS
AzyLAgXWCH52o2ulrVTSE7ZxELRtw3Fq/Crz6UBFhdvx4GmNZxf7knUVe/xavxU+
GoA/HN5lWltE7MzLuw4X7C/1iiA7HG++uGwnbs/ffi91eiu3F2co+maSyEIWN9BK
MDJjgjHyNe3ehkeItqGPrgCJUQKtxKs3g8dpn9ep1e/zsPBWOjoh+BAqe95Ph9ky
o/+el8mkkFacHBn0qXo85F0pyXHsiPeNX6VlkK968YlCAXFvRA4ph4YrNvj70hAb
yUkihu0RukkTSswKde4zuW5oDfu7SniH7cOUNu0F/6TiBZ4cW2hEht2UcGUl6RP3
oCWv7jzn1xobBLMsBqXhE4P6ZNuWbkEGAA82Z+ycPViu348YnrLuCdcKp/+RjRys
S6hHewEvIlD3FDS+I114QQ2yCYbQuPGtedzgrvst3wSvHqwa2cHsfqC7PpZcd85m
MAJOxvKLK5dlYgi+GfFQBQIDAQABMA0GCSqGSIb3DQEBDQUAA4ICAQBVkoKK/1yR
34ouzbtvA6QpVp2kwz8DpESqMKNWwMd0pWGrj8vXrveNX0WlmTkpALciL8oN0hGa
F2YCg/TE/dswZd6tgBKbtKKOfsG+vuI8tjFmCM42jls6Zp1AQ+HHKgbZlTRch550
oLovAtbmRoN4V3gXogKgDbpjpY11IWfMSnIaGTjUqHyugfXbzg5cxxmZ90VDlHr9
iVLwO20nBkFjpRanSzdM8maAbuVG16iihTwUyvxNqFxC1HG/Jm9cdiFiuyIzAILb
Uotz4HGC63W++6pYMfUoRbU8mAotG9kyVd47s/jjnju8OlyRlcdVd7MhOVstcsVj
16k6ICN/99I2ivZojWs+4DBYcmF0uELWv3l0Kf/8JQsFKBYAt+Mx2FiLtTu8MvTf
AYhqc1axmHPlSmkgOi/E7yUwwGwd67UoAnI4mmpca8bm6gIY75IuB3XbO1Kvqgss
pR5OFtGKpW5F/KSZrX6yVU4riZsj2nGv+kkDYBE1hQXXhfTq/mGvM0aj5+puYlHJ
UHp3KyCyKCMiO1ooLXjHLposkAFSrhuvKGVPm4iQZ1tNmgcdwcjIbtF5GzDHBjyH
7HPtui94hMun1XX6KxhAt19fRH7MPVT3lR7p7DTnExU4sYknJQIGBl/UbNwgMlI0
1ENKYOiYwGHFKOqDBTkeP+qS9XwToSU2VQ==
-----END CERTIFICATE-----
